target datalayout = "e-m:e-p270:32:32-p271:32:32-p272:64:64-i64:64-i128:128-f80:128-n8:16:32:64-S128"
target triple = "x86_64-pc-linux-gnu"

%struct.jit_State = type { %struct.GCtrace, ptr, ptr, ptr, ptr, ptr, ptr, i32, i32, i32, i8, i8, %struct.IRType1, i8, %struct.FoldState, ptr, i32, i32, i32, i32, i32, i32, i32, [1 x i32], [5 x %union.TValue], [3 x %union.TValue], ptr, i32, i32, i32, i32, ptr, ptr, i32, i32, i8, ptr, i32, i32, i16, [101 x i16], [258 x i32], [15 x i32], [16 x ptr], [64 x %struct.HotPenalty], i32, [16 x %struct.BPropEntry], i32, %struct.ScEvEntry, ptr, i32, i32, i32, ptr, i32, i32, ptr, ptr, ptr, i64, i64, %union.TValue, ptr, i32, i32 }
%struct.GCtrace = type { %struct.GCRef, i8, i8, i16, i32, i32, %struct.GCRef, ptr, i32, i32, ptr, ptr, %struct.GCRef, %struct.MRef, i32, i32, ptr, i32, i16, i16, i16, i16, i16, i16, i16, i8, i8, i8, i8 }
%struct.GCRef = type { i64 }
%struct.MRef = type { i64 }
%struct.IRType1 = type { i8 }
%struct.FoldState = type { %union.IRIns, [2 x %union.IRIns], [2 x %union.IRIns] }
%union.IRIns = type { %struct.GCRef }
%struct.HotPenalty = type { %struct.MRef, i16, i16 }
%struct.BPropEntry = type { i16, i16, i32 }
%struct.ScEvEntry = type { %struct.MRef, i16, i16, i16, i16, %struct.IRType1, i8 }
%union.TValue = type { i64 }
%struct.GCproto = type { %struct.GCRef, i8, i8, i8, i8, i32, i32, %struct.GCRef, %struct.MRef, %struct.MRef, i32, i32, i32, i8, i8, i16, %struct.GCRef, i32, i32, %struct.MRef, %struct.MRef, %struct.MRef }

; Function Attrs: nounwind uwtable
define internal void @rec_func_vararg(ptr noundef %0) #0 {
  %2 = alloca ptr, align 8
  %3 = alloca ptr, align 8
  %4 = alloca i32, align 4
  %5 = alloca i32, align 4
  %6 = alloca i32, align 4
  store ptr %0, ptr %2, align 8, !tbaa !4
  call void @llvm.lifetime.start.p0(i64 8, ptr %3) #9
  %7 = load ptr, ptr %2, align 8, !tbaa !4
  %8 = getelementptr inbounds nuw %struct.jit_State, ptr %7, i32 0, i32 5
  %9 = load ptr, ptr %8, align 8, !tbaa !65
  store ptr %9, ptr %3, align 8, !tbaa !71
  call void @llvm.lifetime.start.p0(i64 4, ptr %4) #9
  call void @llvm.lifetime.start.p0(i64 4, ptr %5) #9
  call void @llvm.lifetime.start.p0(i64 4, ptr %6) #9
  %10 = load ptr, ptr %2, align 8, !tbaa !4
  %11 = getelementptr inbounds nuw %struct.jit_State, ptr %10, i32 0, i32 8
  %12 = load i32, ptr %11, align 4, !tbaa !44
  %13 = add i32 %12, 1
  %14 = add i32 %13, 1
  store i32 %14, ptr %6, align 4, !tbaa !9
  %15 = load ptr, ptr %2, align 8, !tbaa !4
  %16 = getelementptr inbounds nuw %struct.jit_State, ptr %15, i32 0, i32 9
  %17 = load i32, ptr %16, align 8, !tbaa !43
  %18 = load i32, ptr %6, align 4, !tbaa !9
  %19 = add i32 %17, %18
  %20 = load ptr, ptr %3, align 8, !tbaa !71
  %21 = getelementptr inbounds nuw %struct.GCproto, ptr %20, i32 0, i32 4
  %22 = load i8, ptr %21, align 1, !tbaa !75
  %23 = zext i8 %22 to i32
  %24 = add i32 %19, %23
  %25 = icmp uge i32 %24, 250
  br i1 %25, label %26, label %28

26:                                               ; preds = %1
  %27 = load ptr, ptr %2, align 8, !tbaa !4
  call void @lj_trace_err(ptr noundef %27, i32 noundef 3) #10
  unreachable

28:                                               ; preds = %1
  %29 = load ptr, ptr %2, align 8, !tbaa !4
  %30 = getelementptr inbounds nuw %struct.jit_State, ptr %29, i32 0, i32 6
  %31 = load ptr, ptr %30, align 8, !tbaa !50
  %32 = getelementptr inbounds i32, ptr %31, i64 -2
  %33 = load i32, ptr %32, align 4, !tbaa !9
  %34 = load ptr, ptr %2, align 8, !tbaa !4
  %35 = getelementptr inbounds nuw %struct.jit_State, ptr %34, i32 0, i32 6
  %36 = load ptr, ptr %35, align 8, !tbaa !50
  %37 = load i32, ptr %6, align 4, !tbaa !9
  %38 = sub i32 %37, 1
  %39 = sub i32 %38, 1
  %40 = zext i32 %39 to i64
  %41 = getelementptr inbounds nuw i32, ptr %36, i64 %40
  store i32 %33, ptr %41, align 4, !tbaa !9
  %42 = load ptr, ptr %2, align 8, !tbaa !4
  %43 = getelementptr inbounds nuw %struct.jit_State, ptr %42, i32 0, i32 6
  %44 = load ptr, ptr %43, align 8, !tbaa !50
  %45 = load i32, ptr %6, align 4, !tbaa !9
  %46 = sub i32 %45, 1
  %47 = zext i32 %46 to i64
  %48 = getelementptr inbounds nuw i32, ptr %44, i64 %47
  store i32 65536, ptr %48, align 4, !tbaa !9
  %49 = load ptr, ptr %3, align 8, !tbaa !71
  %50 = getelementptr inbounds nuw %struct.GCproto, ptr %49, i32 0, i32 3
  %51 = load i8, ptr %50, align 2, !tbaa !150
  %52 = zext i8 %51 to i32
  %53 = load ptr, ptr %2, align 8, !tbaa !4
  %54 = getelementptr inbounds nuw %struct.jit_State, ptr %53, i32 0, i32 8
  %55 = load i32, ptr %54, align 4, !tbaa !44
  %56 = icmp ult i32 %52, %55
  br i1 %56, label %57, label %62

57:                                               ; preds = %28
  %58 = load ptr, ptr %3, align 8, !tbaa !71
  %59 = getelementptr inbounds nuw %struct.GCproto, ptr %58, i32 0, i32 3
  %60 = load i8, ptr %59, align 2, !tbaa !150
  %61 = zext i8 %60 to i32
  br label %66

62:                                               ; preds = %28
  %63 = load ptr, ptr %2, align 8, !tbaa !4
  %64 = getelementptr inbounds nuw %struct.jit_State, ptr %63, i32 0, i32 8
  %65 = load i32, ptr %64, align 4, !tbaa !44
  br label %66

66:                                               ; preds = %62, %57
  %67 = phi i32 [ %61, %57 ], [ %65, %62 ]
  store i32 %67, ptr %5, align 4, !tbaa !9
  store i32 0, ptr %4, align 4, !tbaa !9
  br label %68

68:                                               ; preds = %94, %66
  %69 = load i32, ptr %4, align 4, !tbaa !9
  %70 = load i32, ptr %5, align 4, !tbaa !9
  %71 = icmp ult i32 %69, %70
  br i1 %71, label %72, label %97

72:                                               ; preds = %68
  %73 = load ptr, ptr %2, align 8, !tbaa !4
  %74 = getelementptr inbounds nuw %struct.jit_State, ptr %73, i32 0, i32 6
  %75 = load ptr, ptr %74, align 8, !tbaa !50
  %76 = load i32, ptr %4, align 4, !tbaa !9
  %77 = zext i32 %76 to i64
  %78 = getelementptr inbounds nuw i32, ptr %75, i64 %77
  %79 = load i32, ptr %78, align 4, !tbaa !9
  %80 = load ptr, ptr %2, align 8, !tbaa !4
  %81 = getelementptr inbounds nuw %struct.jit_State, ptr %80, i32 0, i32 6
  %82 = load ptr, ptr %81, align 8, !tbaa !50
  %83 = load i32, ptr %6, align 4, !tbaa !9
  %84 = load i32, ptr %4, align 4, !tbaa !9
  %85 = add i32 %83, %84
  %86 = zext i32 %85 to i64
  %87 = getelementptr inbounds nuw i32, ptr %82, i64 %86
  store i32 %79, ptr %87, align 4, !tbaa !9
  %88 = load ptr, ptr %2, align 8, !tbaa !4
  %89 = getelementptr inbounds nuw %struct.jit_State, ptr %88, i32 0, i32 6
  %90 = load ptr, ptr %89, align 8, !tbaa !50
  %91 = load i32, ptr %4, align 4, !tbaa !9
  %92 = zext i32 %91 to i64
  %93 = getelementptr inbounds nuw i32, ptr %90, i64 %92
  store i32 32767, ptr %93, align 4, !tbaa !9
  br label %94

94:                                               ; preds = %72
  %95 = load i32, ptr %4, align 4, !tbaa !9
  %96 = add i32 %95, 1
  store i32 %96, ptr %4, align 4, !tbaa !9
  br label %68, !llvm.loop !167

97:                                               ; preds = %68
  %98 = load i32, ptr %5, align 4, !tbaa !9
  %99 = load ptr, ptr %2, align 8, !tbaa !4
  %100 = getelementptr inbounds nuw %struct.jit_State, ptr %99, i32 0, i32 8
  store i32 %98, ptr %100, align 4, !tbaa !44
  %101 = load ptr, ptr %2, align 8, !tbaa !4
  %102 = getelementptr inbounds nuw %struct.jit_State, ptr %101, i32 0, i32 21
  %103 = load i32, ptr %102, align 4, !tbaa !37
  %104 = add nsw i32 %103, 1
  store i32 %104, ptr %102, align 4, !tbaa !37
  %105 = load i32, ptr %6, align 4, !tbaa !9
  %106 = load ptr, ptr %2, align 8, !tbaa !4
  %107 = getelementptr inbounds nuw %struct.jit_State, ptr %106, i32 0, i32 6
  %108 = load ptr, ptr %107, align 8, !tbaa !50
  %109 = zext i32 %105 to i64
  %110 = getelementptr inbounds nuw i32, ptr %108, i64 %109
  store ptr %110, ptr %107, align 8, !tbaa !50
  %111 = load i32, ptr %6, align 4, !tbaa !9
  %112 = load ptr, ptr %2, align 8, !tbaa !4
  %113 = getelementptr inbounds nuw %struct.jit_State, ptr %112, i32 0, i32 9
  %114 = load i32, ptr %113, align 8, !tbaa !43
  %115 = add i32 %114, %111
  store i32 %115, ptr %113, align 8, !tbaa !43
  call void @llvm.lifetime.end.p0(i64 4, ptr %6) #9
  call void @llvm.lifetime.end.p0(i64 4, ptr %5) #9
  call void @llvm.lifetime.end.p0(i64 4, ptr %4) #9
  call void @llvm.lifetime.end.p0(i64 8, ptr %3) #9
  ret void
}