; Function Attrs: nounwind uwtable
define internal fastcc void @rec_func_vararg(ptr noundef %0) unnamed_addr #0 {
  %2 = getelementptr inbounds nuw i8, ptr %0, i64 152
  %3 = load ptr, ptr %2, align 8, !tbaa !60
  %4 = getelementptr inbounds nuw i8, ptr %0, i64 172
  %5 = load i32, ptr %4, align 4, !tbaa !36
  %6 = add i32 %5, 2
  %7 = getelementptr inbounds nuw i8, ptr %0, i64 176
  %8 = load i32, ptr %7, align 8, !tbaa !35
  %9 = add i32 %8, %6
  %10 = getelementptr inbounds nuw i8, ptr %3, i64 11
  %11 = load i8, ptr %10, align 1, !tbaa !66
  %12 = zext i8 %11 to i32
  %13 = add i32 %9, %12
  %14 = icmp ugt i32 %13, 249
  br i1 %14, label %15, label %16

15:                                               ; preds = %1
  tail call void @lj_trace_err(ptr noundef nonnull %0, i32 noundef 3) #9
  unreachable

16:                                               ; preds = %1
  %17 = add i32 %5, 1
  %18 = getelementptr inbounds nuw i8, ptr %0, i64 160
  %19 = load ptr, ptr %18, align 8, !tbaa !43
  %20 = getelementptr inbounds i8, ptr %19, i64 -8
  %21 = load i32, ptr %20, align 4, !tbaa !37
  %22 = zext i32 %5 to i64
  %23 = getelementptr inbounds nuw i32, ptr %19, i64 %22
  store i32 %21, ptr %23, align 4, !tbaa !37
  %24 = zext i32 %17 to i64
  %25 = getelementptr inbounds nuw i32, ptr %19, i64 %24
  store i32 65536, ptr %25, align 4, !tbaa !37
  %26 = getelementptr inbounds nuw i8, ptr %3, i64 10
  %27 = load i8, ptr %26, align 2, !tbaa !153
  %28 = zext i8 %27 to i32
  %29 = load i32, ptr %4, align 4, !tbaa !36
  %. = tail call i32 @llvm.umin.i32(i32 %29, i32 %28)
  %.not = icmp eq i32 %., 0
  br i1 %.not, label %._crit_edge, label %.lr.ph.preheader

.lr.ph.preheader:                                 ; preds = %16
  %wide.trip.count = zext nneg i32 %. to i64
  br label %.lr.ph

.lr.ph:                                           ; preds = %.lr.ph.preheader, %.lr.ph
  %indvars.iv = phi i64 [ 0, %.lr.ph.preheader ], [ %indvars.iv.next, %.lr.ph ]
  %30 = getelementptr inbounds nuw i32, ptr %19, i64 %indvars.iv
  %31 = load i32, ptr %30, align 4, !tbaa !37
  %32 = trunc nuw nsw i64 %indvars.iv to i32
  %33 = add i32 %6, %32
  %34 = zext i32 %33 to i64
  %35 = getelementptr inbounds nuw i32, ptr %19, i64 %34
  store i32 %31, ptr %35, align 4, !tbaa !37
  store i32 32767, ptr %30, align 4, !tbaa !37
  %indvars.iv.next = add nuw nsw i64 %indvars.iv, 1
  %exitcond.not = icmp eq i64 %indvars.iv.next, %wide.trip.count
  br i1 %exitcond.not, label %._crit_edge, label %.lr.ph, !llvm.loop !174

._crit_edge:                                      ; preds = %.lr.ph, %16
  store i32 %., ptr %4, align 4, !tbaa !36
  %36 = getelementptr inbounds nuw i8, ptr %0, i64 252
  %37 = load i32, ptr %36, align 4, !tbaa !31
  %38 = add nsw i32 %37, 1
  store i32 %38, ptr %36, align 4, !tbaa !31
  %39 = zext i32 %6 to i64
  %40 = getelementptr inbounds nuw i32, ptr %19, i64 %39
  store ptr %40, ptr %18, align 8, !tbaa !43
  %41 = load i32, ptr %7, align 8, !tbaa !35
  %42 = add i32 %41, %6
  store i32 %42, ptr %7, align 8, !tbaa !35
  ret void
}